target datalayout = "e-m:e-p270:32:32-p271:32:32-p272:64:64-i64:64-i128:128-f80:128-n8:16:32:64-S128"
target triple = "x86_64-pc-linux-gnu"

%"class.llvm::Type" = type { ptr, i32, i32, ptr }

; Function Attrs: mustprogress nounwind uwtable
define linkonce_odr hidden noundef ptr @_ZN4llvm16cast_convert_valINS_11IntegerTypeEPKNS_4TypeES4_E4doitES4_(ptr noundef %0) #1 comdat align 2 {
  %2 = alloca ptr, align 8
  store ptr %0, ptr %2, align 8
  %3 = load ptr, ptr %2, align 8
  ret ptr %3
}

; Function Attrs: mustprogress nounwind uwtable
define linkonce_odr hidden noundef i32 @_ZNK4llvm4Type15getSubclassDataEv(ptr noundef nonnull align 8 dereferenceable(24) %0) #1 comdat align 2 {
  %2 = alloca ptr, align 8
  store ptr %0, ptr %2, align 8
  %3 = load ptr, ptr %2, align 8
  %4 = getelementptr inbounds nuw %"class.llvm::Type", ptr %3, i32 0, i32 1
  %5 = load i32, ptr %4, align 8
  %6 = lshr i32 %5, 8
  ret i32 %6
}

; Function Attrs: mustprogress nounwind uwtable
define linkonce_odr hidden noundef ptr @_ZN4llvm8CastInfoINS_11IntegerTypeEPKNS_4TypeEvE6doCastERKS4_(ptr noundef nonnull align 8 dereferenceable(8) %0) #1 comdat align 2 {
  %2 = alloca ptr, align 8
  store ptr %0, ptr %2, align 8
  %3 = load ptr, ptr %2, align 8
  %4 = load ptr, ptr %3, align 8
  %5 = call noundef ptr @_ZN4llvm16cast_convert_valINS_11IntegerTypeEPKNS_4TypeES4_E4doitES4_(ptr noundef %4)
  ret ptr %5
}

; Function Attrs: mustprogress nounwind uwtable
define linkonce_odr hidden noundef i64 @_ZN4llvm7maxIntNEl(i64 noundef %0) #1 comdat {
  %2 = alloca i64, align 8
  %3 = alloca i64, align 8
  store i64 %0, ptr %3, align 8
  %4 = load i64, ptr %3, align 8
  %5 = icmp eq i64 %4, 0
  br i1 %5, label %6, label %7

6:                                                ; preds = %1
  store i64 0, ptr %2, align 8
  br label %12

7:                                                ; preds = %1
  %8 = load i64, ptr %3, align 8
  %9 = sub nsw i64 %8, 1
  %10 = shl i64 1, %9
  %11 = sub i64 %10, 1
  store i64 %11, ptr %2, align 8
  br label %12

12:                                               ; preds = %7, %6
  %13 = load i64, ptr %2, align 8
  ret i64 %13
}

; Function Attrs: mustprogress nounwind uwtable
define linkonce_odr hidden noundef i64 @_ZN4llvm7minIntNEl(i64 noundef %0) #1 comdat {
  %2 = alloca i64, align 8
  %3 = alloca i64, align 8
  store i64 %0, ptr %3, align 8
  %4 = load i64, ptr %3, align 8
  %5 = icmp eq i64 %4, 0
  br i1 %5, label %6, label %7

6:                                                ; preds = %1
  store i64 0, ptr %2, align 8
  br label %13

7:                                                ; preds = %1
  %8 = load i64, ptr %3, align 8
  %9 = sub nsw i64 %8, 1
  %10 = shl i64 1, %9
  %11 = xor i64 %10, -1
  %12 = add i64 1, %11
  store i64 %12, ptr %2, align 8
  br label %13

13:                                               ; preds = %7, %6
  %14 = load i64, ptr %2, align 8
  ret i64 %14
}

; Function Attrs: mustprogress nounwind uwtable
define linkonce_odr hidden noundef i32 @_ZNK4llvm11IntegerType11getBitWidthEv(ptr noundef nonnull align 8 dereferenceable(24) %0) #1 comdat align 2 {
  %2 = alloca ptr, align 8
  store ptr %0, ptr %2, align 8
  %3 = load ptr, ptr %2, align 8
  %4 = call noundef i32 @_ZNK4llvm4Type15getSubclassDataEv(ptr noundef nonnull align 8 dereferenceable(24) %3)
  ret i32 %4
}

; Function Attrs: mustprogress nounwind uwtable
define linkonce_odr hidden noundef ptr @_ZN4llvm4castINS_11IntegerTypeEKNS_4TypeEEEDcPT0_(ptr noundef %0) #1 comdat {
  %2 = alloca ptr, align 8
  store ptr %0, ptr %2, align 8
  %3 = call noundef ptr @_ZN4llvm8CastInfoINS_11IntegerTypeEPKNS_4TypeEvE6doCastERKS4_(ptr noundef nonnull align 8 dereferenceable(8) %2)
  ret ptr %3
}

; Function Attrs: mustprogress nounwind uwtable
define linkonce_odr hidden noundef zeroext i1 @_ZN4llvm6isIntNEjl(i32 noundef %0, i64 noundef %1) #1 comdat {
  %3 = alloca i32, align 4
  %4 = alloca i64, align 8
  store i32 %0, ptr %3, align 4
  store i64 %1, ptr %4, align 8
  %5 = load i32, ptr %3, align 4
  %6 = icmp uge i32 %5, 64
  br i1 %6, label %21, label %7

7:                                                ; preds = %2
  %8 = load i32, ptr %3, align 4
  %9 = zext i32 %8 to i64
  %10 = call noundef i64 @_ZN4llvm7minIntNEl(i64 noundef %9)
  %11 = load i64, ptr %4, align 8
  %12 = icmp sle i64 %10, %11
  br i1 %12, label %13, label %19

13:                                               ; preds = %7
  %14 = load i64, ptr %4, align 8
  %15 = load i32, ptr %3, align 4
  %16 = zext i32 %15 to i64
  %17 = call noundef i64 @_ZN4llvm7maxIntNEl(i64 noundef %16)
  %18 = icmp sle i64 %14, %17
  br label %19

19:                                               ; preds = %13, %7
  %20 = phi i1 [ false, %7 ], [ %18, %13 ]
  br label %21

21:                                               ; preds = %19, %2
  %22 = phi i1 [ true, %2 ], [ %20, %19 ]
  ret i1 %22
}

; Function Attrs: mustprogress nounwind uwtable
define linkonce_odr hidden noundef i32 @_ZNK4llvm4Type18getIntegerBitWidthEv(ptr noundef nonnull align 8 dereferenceable(24) %0) #1 comdat align 2 {
  %2 = alloca ptr, align 8
  store ptr %0, ptr %2, align 8
  %3 = load ptr, ptr %2, align 8
  %4 = call noundef ptr @_ZN4llvm4castINS_11IntegerTypeEKNS_4TypeEEEDcPT0_(ptr noundef %3)
  %5 = call noundef i32 @_ZNK4llvm11IntegerType11getBitWidthEv(ptr noundef nonnull align 8 dereferenceable(24) %4)
  ret i32 %5
}

; Function Attrs: mustprogress nounwind uwtable
define dso_local noundef zeroext i1 @_ZN4llvm11ConstantInt19isValueValidForTypeEPNS_4TypeEl(ptr noundef %0, i64 noundef %1) #1 align 2 {
  %3 = alloca i1, align 1
  %4 = alloca ptr, align 8
  %5 = alloca i64, align 8
  %6 = alloca i32, align 4
  store ptr %0, ptr %4, align 8
  store i64 %1, ptr %5, align 8
  %7 = load ptr, ptr %4, align 8
  %8 = call noundef i32 @_ZNK4llvm4Type18getIntegerBitWidthEv(ptr noundef nonnull align 8 dereferenceable(24) %7)
  store i32 %8, ptr %6, align 4
  %9 = load ptr, ptr %4, align 8
  %10 = call noundef zeroext i1 @_ZNK4llvm4Type11isIntegerTyEj(ptr noundef nonnull align 8 dereferenceable(24) %9, i32 noundef 1)
  br i1 %10, label %11, label %22

11:                                               ; preds = %2
  %12 = load i64, ptr %5, align 8
  %13 = icmp eq i64 %12, 0
  br i1 %13, label %20, label %14

14:                                               ; preds = %11
  %15 = load i64, ptr %5, align 8
  %16 = icmp eq i64 %15, 1
  br i1 %16, label %20, label %17

17:                                               ; preds = %14
  %18 = load i64, ptr %5, align 8
  %19 = icmp eq i64 %18, -1
  br label %20

20:                                               ; preds = %17, %14, %11
  %21 = phi i1 [ true, %14 ], [ true, %11 ], [ %19, %17 ]
  store i1 %21, ptr %3, align 1
  br label %26

22:                                               ; preds = %2
  %23 = load i32, ptr %6, align 4
  %24 = load i64, ptr %5, align 8
  %25 = call noundef zeroext i1 @_ZN4llvm6isIntNEjl(i32 noundef %23, i64 noundef %24)
  store i1 %25, ptr %3, align 1
  br label %26

26:                                               ; preds = %22, %20
  %27 = load i1, ptr %3, align 1
  ret i1 %27
}