; Function Attrs: mustprogress nounwind uwtable
define dso_local noundef zeroext i1 @_ZN4llvm11ConstantInt19isValueValidForTypeEPNS_4TypeEl(ptr noundef nonnull %0, i64 noundef %1) local_unnamed_addr #0 align 2 {
  %3 = getelementptr inbounds nuw i8, ptr %0, i64 8
  %4 = load i32, ptr %3, align 8
  %5 = lshr i32 %4, 8
  %6 = tail call noundef zeroext i1 @_ZNK4llvm4Type11isIntegerTyEj(ptr noundef nonnull align 8 dereferenceable(24) %0, i32 noundef 1) #28
  br i1 %6, label %7, label %9

7:                                                ; preds = %2
  %8 = add i64 %1, 1
  %spec.select = icmp ult i64 %8, 3
  br label %_ZN4llvm6isIntNEjl.exit

9:                                                ; preds = %2
  %10 = icmp ugt i32 %4, 16383
  br i1 %10, label %_ZN4llvm6isIntNEjl.exit, label %11

11:                                               ; preds = %9
  %12 = zext nneg i32 %5 to i64
  %13 = icmp ult i32 %4, 256
  %14 = add nsw i64 %12, -1
  %.neg.i.i = shl nsw i64 -1, %14
  %.0.i.i = select i1 %13, i64 0, i64 %.neg.i.i
  %.not.i = icmp sgt i64 %.0.i.i, %1
  br i1 %.not.i, label %_ZN4llvm6isIntNEjl.exit, label %15

15:                                               ; preds = %11
  %16 = xor i64 %.neg.i.i, -1
  %.0.i6.i = select i1 %13, i64 0, i64 %16
  %17 = icmp sle i64 %1, %.0.i6.i
  br label %_ZN4llvm6isIntNEjl.exit

_ZN4llvm6isIntNEjl.exit:                          ; preds = %15, %11, %9, %7
  %.0 = phi i1 [ %spec.select, %7 ], [ true, %9 ], [ false, %11 ], [ %17, %15 ]
  ret i1 %.0
}